; Function Attrs: nounwind uwtable
define i32 @Mf_CutDeref2_rec(ptr noundef readonly captures(none) %0, ptr noundef readonly captures(none) %1, ptr noundef captures(none) %2, i32 noundef %3) local_unnamed_addr #0 {
  %.val34 = load i32, ptr %1, align 4, !tbaa !12
  %5 = and i32 %.val34, 31
  %6 = lshr i32 %.val34, 6
  %7 = icmp samesign ult i32 %5, 2
  br i1 %7, label %Mf_CutArea.exit, label %8

8:                                                ; preds = %4
  %9 = getelementptr inbounds nuw i8, ptr %0, i64 16
  %10 = load ptr, ptr %9, align 8, !tbaa !86
  %11 = getelementptr inbounds nuw i8, ptr %10, i64 96
  %12 = load i32, ptr %11, align 8, !tbaa !151
  %.not.i = icmp eq i32 %12, 0
  br i1 %.not.i, label %13, label %16

13:                                               ; preds = %8
  %14 = getelementptr inbounds nuw i8, ptr %10, i64 100
  %15 = load i32, ptr %14, align 4, !tbaa !152
  %.not9.i = icmp eq i32 %15, 0
  br i1 %.not9.i, label %21, label %16

16:                                               ; preds = %13, %8
  %17 = getelementptr i8, ptr %0, i64 64
  %.val.i = load ptr, ptr %17, align 8, !tbaa !26
  %18 = zext nneg i32 %6 to i64
  %19 = getelementptr inbounds nuw i32, ptr %.val.i, i64 %18
  %20 = load i32, ptr %19, align 4, !tbaa !12
  br label %Mf_CutArea.exit

21:                                               ; preds = %13
  %22 = getelementptr inbounds nuw i8, ptr %10, i64 72
  %23 = load i32, ptr %22, align 8, !tbaa !153
  %.not10.i = icmp eq i32 %23, 0
  br i1 %.not10.i, label %Mf_CutArea.exit, label %24

24:                                               ; preds = %21
  %25 = getelementptr inbounds nuw i8, ptr %10, i64 28
  %26 = load i32, ptr %25, align 4, !tbaa !154
  %27 = add nsw i32 %26, %5
  br label %Mf_CutArea.exit

Mf_CutArea.exit:                                  ; preds = %4, %16, %21, %24
  %.0.i = phi i32 [ %20, %16 ], [ %27, %24 ], [ 0, %4 ], [ 1, %21 ]
  %28 = icmp eq i32 %3, 0
  %.not37 = icmp eq i32 %5, 0
  %or.cond = or i1 %28, %.not37
  br i1 %or.cond, label %.loopexit, label %.lr.ph

.lr.ph:                                           ; preds = %Mf_CutArea.exit
  %29 = getelementptr inbounds nuw i8, ptr %2, i64 4
  %.phi.trans.insert.i = getelementptr inbounds nuw i8, ptr %2, i64 8
  %30 = getelementptr i8, ptr %0, i64 24
  %31 = getelementptr i8, ptr %0, i64 40
  %32 = add nsw i32 %3, -1
  br label %33

33:                                               ; preds = %.lr.ph, %88
  %indvars.iv = phi i64 [ 1, %.lr.ph ], [ %indvars.iv.next, %88 ]
  %.039 = phi i32 [ %.0.i, %.lr.ph ], [ %.1, %88 ]
  %34 = getelementptr inbounds nuw i32, ptr %1, i64 %indvars.iv
  %35 = load i32, ptr %34, align 4, !tbaa !12
  %36 = load i32, ptr %29, align 4, !tbaa !27
  %37 = load i32, ptr %2, align 8, !tbaa !23
  %38 = icmp eq i32 %36, %37
  br i1 %38, label %39, label %.Vec_IntGrow.exit10_crit_edge.i

.Vec_IntGrow.exit10_crit_edge.i:                  ; preds = %33
  %.pre.i = load ptr, ptr %.phi.trans.insert.i, align 8, !tbaa !26
  br label %Vec_IntPush.exit

39:                                               ; preds = %33
  %40 = icmp slt i32 %36, 16
  br i1 %40, label %41, label %48

41:                                               ; preds = %39
  %42 = load ptr, ptr %.phi.trans.insert.i, align 8, !tbaa !26
  %.not9.i.i = icmp eq ptr %42, null
  br i1 %.not9.i.i, label %45, label %43

43:                                               ; preds = %41
  %44 = tail call dereferenceable_or_null(64) ptr @realloc(ptr noundef nonnull %42, i64 noundef 64) #30
  br label %Vec_IntGrow.exit.i

45:                                               ; preds = %41
  %46 = tail call noalias dereferenceable_or_null(64) ptr @malloc(i64 noundef 64) #27
  br label %Vec_IntGrow.exit.i

Vec_IntGrow.exit.i:                               ; preds = %45, %43
  %47 = phi ptr [ %44, %43 ], [ %46, %45 ]
  store ptr %47, ptr %.phi.trans.insert.i, align 8, !tbaa !26
  store i32 16, ptr %2, align 8, !tbaa !23
  br label %Vec_IntPush.exit

48:                                               ; preds = %39
  %49 = shl nuw nsw i32 %36, 1
  %50 = load ptr, ptr %.phi.trans.insert.i, align 8, !tbaa !26
  %.not9.i9.i = icmp eq ptr %50, null
  %51 = zext nneg i32 %49 to i64
  %52 = shl nuw nsw i64 %51, 2
  br i1 %.not9.i9.i, label %55, label %53

53:                                               ; preds = %48
  %54 = tail call ptr @realloc(ptr noundef nonnull %50, i64 noundef %52) #30
  br label %57

55:                                               ; preds = %48
  %56 = tail call noalias ptr @malloc(i64 noundef %52) #27
  br label %57

57:                                               ; preds = %55, %53
  %58 = phi ptr [ %54, %53 ], [ %56, %55 ]
  store ptr %58, ptr %.phi.trans.insert.i, align 8, !tbaa !26
  store i32 %49, ptr %2, align 8, !tbaa !23
  br label %Vec_IntPush.exit

Vec_IntPush.exit:                                 ; preds = %.Vec_IntGrow.exit10_crit_edge.i, %Vec_IntGrow.exit.i, %57
  %59 = phi ptr [ %.pre.i, %.Vec_IntGrow.exit10_crit_edge.i ], [ %58, %57 ], [ %47, %Vec_IntGrow.exit.i ]
  %60 = load i32, ptr %29, align 4, !tbaa !27
  %61 = add nsw i32 %60, 1
  store i32 %61, ptr %29, align 4, !tbaa !27
  %62 = sext i32 %60 to i64
  %63 = getelementptr inbounds i32, ptr %59, i64 %62
  store i32 %35, ptr %63, align 4, !tbaa !12
  %64 = load i32, ptr %34, align 4, !tbaa !12
  %.val35 = load ptr, ptr %30, align 8, !tbaa !79
  %65 = sext i32 %64 to i64
  %66 = getelementptr inbounds %struct.Mf_Obj_t_, ptr %.val35, i64 %65, i32 3
  %67 = load i32, ptr %66, align 4
  %68 = and i32 %67, -65536
  %69 = add i32 %68, -65536
  %70 = and i32 %67, 65535
  %71 = or disjoint i32 %69, %70
  store i32 %71, ptr %66, align 4
  %.not28 = icmp eq i32 %68, 65536
  br i1 %.not28, label %72, label %88

72:                                               ; preds = %Vec_IntPush.exit
  %73 = load i32, ptr %34, align 4, !tbaa !12
  %.val = load ptr, ptr %30, align 8, !tbaa !79
  %74 = sext i32 %73 to i64
  %75 = getelementptr inbounds %struct.Mf_Obj_t_, ptr %.val, i64 %74
  %76 = load i32, ptr %75, align 4, !tbaa !81
  %.not29 = icmp eq i32 %76, 0
  br i1 %.not29, label %88, label %77

77:                                               ; preds = %72
  %.val31 = load ptr, ptr %31, align 8, !tbaa !80
  %78 = ashr i32 %76, 16
  %79 = sext i32 %78 to i64
  %80 = getelementptr inbounds ptr, ptr %.val31, i64 %79
  %81 = load ptr, ptr %80, align 8, !tbaa !83
  %82 = and i32 %76, 65535
  %83 = zext nneg i32 %82 to i64
  %84 = getelementptr inbounds nuw i32, ptr %81, i64 %83
  %85 = getelementptr inbounds nuw i8, ptr %84, i64 4
  %86 = tail call i32 @Mf_CutDeref2_rec(ptr noundef nonnull %0, ptr noundef nonnull %85, ptr noundef nonnull %2, i32 noundef %32)
  %87 = add nsw i32 %86, %.039
  br label %88

88:                                               ; preds = %Vec_IntPush.exit, %72, %77
  %.1 = phi i32 [ %.039, %Vec_IntPush.exit ], [ %87, %77 ], [ %.039, %72 ]
  %indvars.iv.next = add nuw nsw i64 %indvars.iv, 1
  %.val33 = load i32, ptr %1, align 4, !tbaa !12
  %89 = and i32 %.val33, 31
  %90 = zext nneg i32 %89 to i64
  %.not.not = icmp samesign ult i64 %indvars.iv, %90
  br i1 %.not.not, label %33, label %.loopexit, !llvm.loop !274

.loopexit:                                        ; preds = %88, %Mf_CutArea.exit
  %.026 = phi i32 [ %.0.i, %Mf_CutArea.exit ], [ %.1, %88 ]
  ret i32 %.026
}